target datalayout = "e-m:e-p270:32:32-p271:32:32-p272:64:64-i64:64-i128:128-f80:128-n8:16:32:64-S128"
target triple = "x86_64-pc-linux-gnu"

; Function Attrs: alwaysinline nounwind willreturn memory(none) uwtable
define internal i32 @av_clip_c(i32 noundef %0, i32 noundef %1, i32 noundef %2) #8 {
  %4 = alloca i32, align 4
  %5 = alloca i32, align 4
  %6 = alloca i32, align 4
  %7 = alloca i32, align 4
  store i32 %0, ptr %5, align 4, !tbaa !49
  store i32 %1, ptr %6, align 4, !tbaa !49
  store i32 %2, ptr %7, align 4, !tbaa !49
  %8 = load i32, ptr %5, align 4, !tbaa !49
  %9 = load i32, ptr %6, align 4, !tbaa !49
  %10 = icmp slt i32 %8, %9
  br i1 %10, label %11, label %13

11:                                               ; preds = %3
  %12 = load i32, ptr %6, align 4, !tbaa !49
  store i32 %12, ptr %4, align 4
  br label %21

13:                                               ; preds = %3
  %14 = load i32, ptr %5, align 4, !tbaa !49
  %15 = load i32, ptr %7, align 4, !tbaa !49
  %16 = icmp sgt i32 %14, %15
  br i1 %16, label %17, label %19

17:                                               ; preds = %13
  %18 = load i32, ptr %7, align 4, !tbaa !49
  store i32 %18, ptr %4, align 4
  br label %21

19:                                               ; preds = %13
  %20 = load i32, ptr %5, align 4, !tbaa !49
  store i32 %20, ptr %4, align 4
  br label %21

21:                                               ; preds = %19, %17, %11
  %22 = load i32, ptr %4, align 4
  ret i32 %22
}

; Function Attrs: nounwind uwtable
define internal void @draw_sample_p2p_rgba_full(ptr noundef %0, i32 noundef %1, i32 noundef %2, ptr noundef %3, ptr noundef %4, i32 noundef %5) #1 {
  %7 = alloca ptr, align 8
  %8 = alloca i32, align 4
  %9 = alloca i32, align 4
  %10 = alloca ptr, align 8
  %11 = alloca ptr, align 8
  %12 = alloca i32, align 4
  %13 = alloca i32, align 4
  %14 = alloca i32, align 4
  %15 = alloca ptr, align 8
  %16 = alloca i32, align 4
  %17 = alloca i16, align 2
  %18 = alloca i32, align 4
  store ptr %0, ptr %7, align 8, !tbaa !69
  store i32 %1, ptr %8, align 4, !tbaa !49
  store i32 %2, ptr %9, align 4, !tbaa !49
  store ptr %3, ptr %10, align 8, !tbaa !92
  store ptr %4, ptr %11, align 8, !tbaa !69
  store i32 %5, ptr %12, align 4, !tbaa !49
  call void @llvm.lifetime.start.p0(i64 4, ptr %13) #13
  %19 = load ptr, ptr %11, align 8, !tbaa !69
  %20 = load i32, ptr %19, align 1, !tbaa !89
  store i32 %20, ptr %13, align 4, !tbaa !49
  %21 = load i32, ptr %12, align 4, !tbaa !49
  %22 = icmp sge i32 %21, 0
  br i1 %22, label %23, label %92

23:                                               ; preds = %6
  %24 = load i32, ptr %12, align 4, !tbaa !49
  %25 = load i32, ptr %8, align 4, !tbaa !49
  %26 = icmp slt i32 %24, %25
  br i1 %26, label %27, label %92

27:                                               ; preds = %23
  %28 = load i32, ptr %13, align 4, !tbaa !49
  %29 = load ptr, ptr %7, align 8, !tbaa !69
  %30 = load i32, ptr %12, align 4, !tbaa !49
  %31 = load i32, ptr %9, align 4, !tbaa !49
  %32 = mul nsw i32 %30, %31
  %33 = sext i32 %32 to i64
  %34 = getelementptr inbounds i8, ptr %29, i64 %33
  store i32 %28, ptr %34, align 1, !tbaa !89
  %35 = load ptr, ptr %10, align 8, !tbaa !92
  %36 = load i16, ptr %35, align 2, !tbaa !93
  %37 = sext i16 %36 to i32
  %38 = icmp ne i32 %37, 0
  br i1 %38, label %39, label %91

39:                                               ; preds = %27
  %40 = load i32, ptr %12, align 4, !tbaa !49
  %41 = load ptr, ptr %10, align 8, !tbaa !92
  %42 = load i16, ptr %41, align 2, !tbaa !93
  %43 = sext i16 %42 to i32
  %44 = icmp ne i32 %40, %43
  br i1 %44, label %45, label %91

45:                                               ; preds = %39
  call void @llvm.lifetime.start.p0(i64 4, ptr %14) #13
  %46 = load ptr, ptr %10, align 8, !tbaa !92
  %47 = load i16, ptr %46, align 2, !tbaa !93
  %48 = sext i16 %47 to i32
  store i32 %48, ptr %14, align 4, !tbaa !49
  call void @llvm.lifetime.start.p0(i64 8, ptr %15) #13
  call void @llvm.lifetime.start.p0(i64 4, ptr %16) #13
  %49 = load i32, ptr %12, align 4, !tbaa !49
  %50 = load i32, ptr %8, align 4, !tbaa !49
  %51 = sub nsw i32 %50, 1
  %52 = call i32 @av_clip_c(i32 noundef %49, i32 noundef 0, i32 noundef %51) #15
  store i32 %52, ptr %16, align 4, !tbaa !49
  %53 = load i32, ptr %14, align 4, !tbaa !49
  %54 = load i32, ptr %16, align 4, !tbaa !49
  %55 = icmp sgt i32 %53, %54
  br i1 %55, label %56, label %65

56:                                               ; preds = %45
  br label %57

57:                                               ; preds = %56
  call void @llvm.lifetime.start.p0(i64 2, ptr %17) #13
  %58 = load i32, ptr %16, align 4, !tbaa !49
  %59 = trunc i32 %58 to i16
  store i16 %59, ptr %17, align 2, !tbaa !93
  %60 = load i32, ptr %14, align 4, !tbaa !49
  store i32 %60, ptr %16, align 4, !tbaa !49
  %61 = load i16, ptr %17, align 2, !tbaa !93
  %62 = sext i16 %61 to i32
  store i32 %62, ptr %14, align 4, !tbaa !49
  call void @llvm.lifetime.end.p0(i64 2, ptr %17) #13
  br label %63

63:                                               ; preds = %57
  br label %64

64:                                               ; preds = %63
  br label %65

65:                                               ; preds = %64, %45
  %66 = load ptr, ptr %7, align 8, !tbaa !69
  %67 = load i32, ptr %14, align 4, !tbaa !49
  %68 = add nsw i32 %67, 1
  %69 = load i32, ptr %9, align 4, !tbaa !49
  %70 = mul nsw i32 %68, %69
  %71 = sext i32 %70 to i64
  %72 = getelementptr inbounds i8, ptr %66, i64 %71
  store ptr %72, ptr %15, align 8, !tbaa !69
  call void @llvm.lifetime.start.p0(i64 4, ptr %18) #13
  %73 = load i32, ptr %14, align 4, !tbaa !49
  %74 = add nsw i32 %73, 1
  store i32 %74, ptr %18, align 4, !tbaa !49
  br label %75

75:                                               ; preds = %83, %65
  %76 = load i32, ptr %18, align 4, !tbaa !49
  %77 = load i32, ptr %16, align 4, !tbaa !49
  %78 = icmp slt i32 %76, %77
  br i1 %78, label %80, label %79

79:                                               ; preds = %75
  call void @llvm.lifetime.end.p0(i64 4, ptr %18) #13
  br label %90

80:                                               ; preds = %75
  %81 = load i32, ptr %13, align 4, !tbaa !49
  %82 = load ptr, ptr %15, align 8, !tbaa !69
  store i32 %81, ptr %82, align 1, !tbaa !89
  br label %83

83:                                               ; preds = %80
  %84 = load i32, ptr %18, align 4, !tbaa !49
  %85 = add nsw i32 %84, 1
  store i32 %85, ptr %18, align 4, !tbaa !49
  %86 = load i32, ptr %9, align 4, !tbaa !49
  %87 = load ptr, ptr %15, align 8, !tbaa !69
  %88 = sext i32 %86 to i64
  %89 = getelementptr inbounds i8, ptr %87, i64 %88
  store ptr %89, ptr %15, align 8, !tbaa !69
  br label %75, !llvm.loop !101

90:                                               ; preds = %79
  call void @llvm.lifetime.end.p0(i64 4, ptr %16) #13
  call void @llvm.lifetime.end.p0(i64 8, ptr %15) #13
  call void @llvm.lifetime.end.p0(i64 4, ptr %14) #13
  br label %91

91:                                               ; preds = %90, %39, %27
  br label %92

92:                                               ; preds = %91, %23, %6
  %93 = load i32, ptr %12, align 4, !tbaa !49
  %94 = trunc i32 %93 to i16
  %95 = load ptr, ptr %10, align 8, !tbaa !92
  store i16 %94, ptr %95, align 2, !tbaa !93
  call void @llvm.lifetime.end.p0(i64 4, ptr %13) #13
  ret void
}