; Function Attrs: nofree norecurse nosync nounwind memory(argmem: readwrite) uwtable
define internal void @draw_sample_p2p_rgba_full(ptr noundef writeonly captures(none) %0, i32 noundef %1, i32 noundef %2, ptr noundef captures(none) %3, ptr noundef readonly captures(none) %4, i32 noundef %5) #7 {
  %7 = load i32, ptr %4, align 1, !tbaa !96
  %8 = icmp sgt i32 %5, -1
  %9 = icmp slt i32 %5, %1
  %or.cond = and i1 %8, %9
  br i1 %or.cond, label %10, label %.loopexit

10:                                               ; preds = %6
  %11 = mul nsw i32 %5, %2
  %12 = sext i32 %11 to i64
  %13 = getelementptr inbounds i8, ptr %0, i64 %12
  store i32 %7, ptr %13, align 1, !tbaa !96
  %14 = load i16, ptr %3, align 2, !tbaa !77
  %15 = sext i16 %14 to i32
  %.not = icmp eq i16 %14, 0
  %.not38 = icmp eq i32 %5, %15
  %or.cond39 = or i1 %.not, %.not38
  br i1 %or.cond39, label %.loopexit, label %16

16:                                               ; preds = %10
  %17 = icmp slt i32 %5, %15
  %sext = shl i32 %5, 16
  %18 = ashr exact i32 %sext, 16
  %.032 = tail call i32 @llvm.smax.i32(i32 %5, i32 %15)
  %.031 = select i1 %17, i32 %18, i32 %15
  %19 = add nsw i32 %.031, 1
  %20 = icmp slt i32 %19, %.032
  br i1 %20, label %.lr.ph, label %.loopexit

.lr.ph:                                           ; preds = %16
  %21 = mul nsw i32 %19, %2
  %22 = sext i32 %21 to i64
  %23 = getelementptr inbounds i8, ptr %0, i64 %22
  %24 = sext i32 %2 to i64
  br label %25

25:                                               ; preds = %.lr.ph, %25
  %.041 = phi i32 [ %19, %.lr.ph ], [ %26, %25 ]
  %.03340 = phi ptr [ %23, %.lr.ph ], [ %27, %25 ]
  store i32 %7, ptr %.03340, align 1, !tbaa !96
  %26 = add nsw i32 %.041, 1
  %27 = getelementptr inbounds i8, ptr %.03340, i64 %24
  %exitcond.not = icmp eq i32 %26, %.032
  br i1 %exitcond.not, label %.loopexit, label %25, !llvm.loop !105

.loopexit:                                        ; preds = %25, %16, %10, %6
  %28 = trunc i32 %5 to i16
  store i16 %28, ptr %3, align 2, !tbaa !77
  ret void
}